; Function Attrs: nounwind sspstrong uwtable
define i64 @rsock_fd_socket_addrinfo(i32 noundef %0, ptr noundef readonly captures(none) %1, i32 noundef %2) local_unnamed_addr #0 {
  %4 = alloca i32, align 4
  %5 = alloca i32, align 4
  call void @llvm.lifetime.start.p0(i64 4, ptr nonnull %4) #21
  call void @llvm.lifetime.start.p0(i64 4, ptr nonnull %5) #21
  store i32 4, ptr %5, align 4, !tbaa !34
  %6 = icmp ugt i32 %2, 1
  br i1 %6, label %7, label %get_afamily.exit

7:                                                ; preds = %3
  %8 = load i16, ptr %1, align 2, !tbaa !91
  %9 = zext i16 %8 to i32
  br label %get_afamily.exit

get_afamily.exit:                                 ; preds = %3, %7
  %.0.i = phi i32 [ %9, %7 ], [ 0, %3 ]
  %10 = call i32 @getsockopt(i32 noundef %0, i32 noundef 1, i32 noundef 3, ptr noundef nonnull %4, ptr noundef nonnull %5) #21
  %11 = icmp eq i32 %10, -1
  br i1 %11, label %12, label %15

12:                                               ; preds = %get_afamily.exit
  %13 = call ptr @rb_errno_ptr() #21
  %14 = load i32, ptr %13, align 4, !tbaa !34
  call void @rb_syserr_fail(i32 noundef %14, ptr noundef nonnull @.str.52) #23
  unreachable

15:                                               ; preds = %get_afamily.exit
  %16 = load i32, ptr %4, align 4, !tbaa !34
  %17 = load i64, ptr @rb_cAddrinfo, align 8, !tbaa !35
  %18 = call i64 @rb_data_typed_object_wrap(i64 noundef %17, ptr noundef null, ptr noundef nonnull @addrinfo_type) #21
  %19 = call noalias noundef nonnull dereferenceable(2080) ptr @ruby_xcalloc(i64 noundef 1, i64 noundef 2080) #25
  store i64 4, ptr %19, align 8, !tbaa !109
  %20 = getelementptr inbounds nuw i8, ptr %19, i64 8
  store i64 4, ptr %20, align 8, !tbaa !111
  %21 = inttoptr i64 %18 to ptr
  %22 = getelementptr inbounds nuw i8, ptr %21, i64 32
  store ptr %19, ptr %22, align 8, !tbaa !112
  %23 = icmp ugt i32 %2, 2048
  br i1 %23, label %24, label %26

24:                                               ; preds = %15
  %25 = load i64, ptr @rb_eArgError, align 8, !tbaa !35
  call void (i64, ptr, ...) @rb_raise(i64 noundef %25, ptr noundef nonnull @.str.100) #23
  unreachable

26:                                               ; preds = %15
  %.not.i.i.i = icmp eq i32 %2, 0
  br i1 %.not.i.i.i, label %rsock_addrinfo_new.exit, label %27

27:                                               ; preds = %26
  %28 = zext nneg i32 %2 to i64
  %29 = getelementptr inbounds nuw i8, ptr %19, i64 32
  %30 = call ptr @__memcpy_chk(ptr noundef nonnull %29, ptr noundef nonnull readonly %1, i64 noundef range(i64 1, 0) %28, i64 noundef 2048) #21, !alias.scope !134
  br label %rsock_addrinfo_new.exit

rsock_addrinfo_new.exit:                          ; preds = %26, %27
  %31 = getelementptr inbounds nuw i8, ptr %19, i64 28
  store i32 %2, ptr %31, align 4, !tbaa !118
  %32 = getelementptr inbounds nuw i8, ptr %19, i64 16
  store i32 %.0.i, ptr %32, align 8, !tbaa !119
  %33 = getelementptr inbounds nuw i8, ptr %19, i64 20
  store i32 %16, ptr %33, align 4, !tbaa !120
  %34 = getelementptr inbounds nuw i8, ptr %19, i64 24
  store i32 0, ptr %34, align 8, !tbaa !121
  store i64 4, ptr %20, align 8, !tbaa !111
  store i64 4, ptr %19, align 8, !tbaa !109
  call void @llvm.lifetime.end.p0(i64 4, ptr nonnull %5) #21
  call void @llvm.lifetime.end.p0(i64 4, ptr nonnull %4) #21
  ret i64 %18
}